; ModuleID = '31/106.c'
source_filename = "31/106.c"
target datalayout = "e-m:e-p270:32:32-p271:32:32-p272:64:64-i64:64-f80:128-n8:16:32:64-S128"
target triple = "x86_64-pc-linux-gnu"

%struct.student = type { [1000 x i8], %struct.student* }

@.str = private unnamed_addr constant [4 x i8] c"%s\0A\00", align 1

; Function Attrs: noinline nounwind uwtable
define dso_local void @main() #0 {
  %1 = alloca [1000 x %struct.student], align 16
  %2 = alloca %struct.student*, align 8
  %3 = alloca %struct.student*, align 8
  %4 = alloca i32, align 4
  %5 = alloca i32, align 4
  %6 = alloca i32, align 4
  store i32 0, i32* %4, align 4
  br label %7

7:                                                ; preds = %24, %0
  %8 = load i32, i32* %4, align 4
  %9 = sext i32 %8 to i64
  %10 = getelementptr inbounds [1000 x %struct.student], [1000 x %struct.student]* %1, i64 0, i64 %9
  %11 = getelementptr inbounds %struct.student, %struct.student* %10, i32 0, i32 0
  %12 = getelementptr inbounds [1000 x i8], [1000 x i8]* %11, i64 0, i64 0
  %13 = call i32 (i8*, ...) bitcast (i32 (...)* @gets to i32 (i8*, ...)*)(i8* %12)
  %14 = load i32, i32* %4, align 4
  %15 = sext i32 %14 to i64
  %16 = getelementptr inbounds [1000 x %struct.student], [1000 x %struct.student]* %1, i64 0, i64 %15
  %17 = getelementptr inbounds %struct.student, %struct.student* %16, i32 0, i32 0
  %18 = getelementptr inbounds [1000 x i8], [1000 x i8]* %17, i64 0, i64 0
  %19 = load i8, i8* %18, align 16
  %20 = sext i8 %19 to i32
  %21 = icmp eq i32 %20, 101
  br i1 %21, label %22, label %23

22:                                               ; preds = %7
  br label %27

23:                                               ; preds = %7
  br label %24

24:                                               ; preds = %23
  %25 = load i32, i32* %4, align 4
  %26 = add nsw i32 %25, 1
  store i32 %26, i32* %4, align 4
  br label %7

27:                                               ; preds = %22
  %28 = load i32, i32* %4, align 4
  %29 = sub nsw i32 %28, 1
  store i32 %29, i32* %5, align 4
  br label %30

30:                                               ; preds = %48, %27
  %31 = load i32, i32* %5, align 4
  %32 = icmp sge i32 %31, 0
  br i1 %32, label %33, label %51

33:                                               ; preds = %30
  %34 = load i32, i32* %4, align 4
  %35 = sub nsw i32 %34, 1
  %36 = sext i32 %35 to i64
  %37 = getelementptr inbounds [1000 x %struct.student], [1000 x %struct.student]* %1, i64 0, i64 %36
  store %struct.student* %37, %struct.student** %3, align 8
  %38 = load i32, i32* %5, align 4
  %39 = sub nsw i32 %38, 1
  %40 = sext i32 %39 to i64
  %41 = getelementptr inbounds [1000 x %struct.student], [1000 x %struct.student]* %1, i64 0, i64 %40
  %42 = load i32, i32* %5, align 4
  %43 = sext i32 %42 to i64
  %44 = getelementptr inbounds [1000 x %struct.student], [1000 x %struct.student]* %1, i64 0, i64 %43
  %45 = getelementptr inbounds %struct.student, %struct.student* %44, i32 0, i32 1
  store %struct.student* %41, %struct.student** %45, align 8
  %46 = getelementptr inbounds [1000 x %struct.student], [1000 x %struct.student]* %1, i64 0, i64 0
  %47 = getelementptr inbounds %struct.student, %struct.student* %46, i32 0, i32 1
  store %struct.student* null, %struct.student** %47, align 8
  br label %48

48:                                               ; preds = %33
  %49 = load i32, i32* %5, align 4
  %50 = add nsw i32 %49, -1
  store i32 %50, i32* %5, align 4
  br label %30

51:                                               ; preds = %30
  %52 = load %struct.student*, %struct.student** %3, align 8
  store %struct.student* %52, %struct.student** %2, align 8
  br label %53

53:                                               ; preds = %61, %51
  %54 = load %struct.student*, %struct.student** %2, align 8
  %55 = getelementptr inbounds %struct.student, %struct.student* %54, i32 0, i32 0
  %56 = getelementptr inbounds [1000 x i8], [1000 x i8]* %55, i64 0, i64 0
  %57 = call i32 (i8*, ...) @printf(i8* getelementptr inbounds ([4 x i8], [4 x i8]* @.str, i64 0, i64 0), i8* %56)
  %58 = load %struct.student*, %struct.student** %2, align 8
  %59 = getelementptr inbounds %struct.student, %struct.student* %58, i32 0, i32 1
  %60 = load %struct.student*, %struct.student** %59, align 8
  store %struct.student* %60, %struct.student** %2, align 8
  br label %61

61:                                               ; preds = %53
  %62 = load %struct.student*, %struct.student** %2, align 8
  %63 = icmp ne %struct.student* %62, null
  br i1 %63, label %53, label %64

64:                                               ; preds = %61
  ret void
}

declare dso_local i32 @gets(...) #1

declare dso_local i32 @printf(i8*, ...) #1


!llvm.module.flags = !{!0}
!llvm.ident = !{!1}

!0 = !{i32 1, !"wchar_size", i32 4}
!1 = !{!"clang version 10.0.0-4ubuntu1 "}
